(dp1
S'output'
p2
S'<class \'gluon.contrib.pg8000.errors.ProgrammingError\'> (\'ERROR\', \'42P07\', \'relation "geostuff" already exists\')'
p3
sS'layer'
p4
S'/home/desarrollo/myapp/sismun/web2py/applications/mapsnews/models/db.py'
p5
sS'code'
p6
S'# -*- coding: utf-8 -*-\n\n# -*- coding: utf-8 -*-\ndb = DAL(\'postgres://postgres:oca01tex@localhost:5432/testw2p\', lazy_tables=False,)\ndb.define_table(\'geostuff\',\n    Field(\'name\', \'string\'),\n    Field(\'geometry1\', \'geometry()\'),\n    )\nn_rows = db(db.geostuff).count()\nif not n_rows:\n    db.geostuff.insert(name="My first geo point (London!)", geometry1="POINT(-0.091109 51.512622)")\n    db.geostuff.insert(name="My first linestring", geometry1="LINESTRING (8.791595 45.660281, 11.343062 44.494932, 10.394590 43.722998)")\n'
p7
sS'snapshot'
p8
(dp9
S'exception'
p10
(dp11
S'__module__'
p12
S"'gluon.contrib.pg8000.errors'"
p13
sS'__getslice__'
p14
S"<method-wrapper '__getslice__' of ProgrammingError object>"
p15
sS'__str__'
p16
S"<method-wrapper '__str__' of ProgrammingError object>"
p17
sS'__reduce__'
p18
S'<built-in method __reduce__ of ProgrammingError object>'
p19
sS'__dict__'
p20
S'{}'
p21
sS'__sizeof__'
p22
S'<built-in method __sizeof__ of ProgrammingError object>'
p23
sS'__weakref__'
p24
S'None'
p25
sS'__init__'
p26
S"<method-wrapper '__init__' of ProgrammingError object>"
p27
sS'__setattr__'
p28
S"<method-wrapper '__setattr__' of ProgrammingError object>"
p29
sS'__reduce_ex__'
p30
S'<built-in method __reduce_ex__ of ProgrammingError object>'
p31
sS'__new__'
p32
S'<built-in method __new__ of type object>'
p33
sS'__format__'
p34
S'<built-in method __format__ of ProgrammingError object>'
p35
sS'__class__'
p36
S"<class 'gluon.contrib.pg8000.errors.ProgrammingError'>"
p37
sS'__doc__'
p38
S'None'
p39
sS'__getitem__'
p40
S"<method-wrapper '__getitem__' of ProgrammingError object>"
p41
sS'__setstate__'
p42
S'<built-in method __setstate__ of ProgrammingError object>'
p43
sS'__getattribute__'
p44
S"<method-wrapper '__getattribute__' of ProgrammingError object>"
p45
sS'args'
p46
S'(\'ERROR\', \'42P07\', \'relation "geostuff" already exists\')'
p47
sS'__subclasshook__'
p48
S'<built-in method __subclasshook__ of type object>'
p49
sS'__unicode__'
p50
S'<built-in method __unicode__ of ProgrammingError object>'
p51
sS'__delattr__'
p52
S"<method-wrapper '__delattr__' of ProgrammingError object>"
p53
sS'__repr__'
p54
S"<method-wrapper '__repr__' of ProgrammingError object>"
p55
sS'__hash__'
p56
S"<method-wrapper '__hash__' of ProgrammingError object>"
p57
ssS'evalue'
p58
S'(\'ERROR\', \'42P07\', \'relation "geostuff" already exists\')'
p59
sS'request'
p60
cgluon.html
XML_unpickle
p61
(S'sIU\x00\x00<div><table><tr><td style="font-weight:bold;vertical-align:top;">ajax</td><td style="vertical-align:top;">:</td><td><div>False</div></td></tr><tr><td style="font-weight:bold;vertical-align:top;">application</td><td style="vertical-align:top;">:</td><td><div>mapsnews</div></td></tr><tr><td style="font-weight:bold;vertical-align:top;">args</td><td style="vertical-align:top;">:</td><td><div><table></table></div></td></tr><tr><td style="font-weight:bold;vertical-align:top;">cid</td><td style="vertical-align:top;">:</td><td><div>None</div></td></tr><tr><td style="font-weight:bold;vertical-align:top;">client</td><td style="vertical-align:top;">:</td><td><div>127.0.0.1</div></td></tr><tr><td style="font-weight:bold;vertical-align:top;">controller</td><td style="vertical-align:top;">:</td><td><div>default</div></td></tr><tr><td style="font-weight:bold;vertical-align:top;">cookies</td><td style="vertical-align:top;">:</td><td><div><table><tr><td style="font-weight:bold;vertical-align:top;">session_id_admin</td><td style="vertical-align:top;">:</td><td><div>127.0.0.1-fe44eb8d-780b-446d-9a8a-c901a9f2d128<table><tr><td style="font-weight:bold;vertical-align:top;">comment</td><td style="vertical-align:top;">:</td><td><div></div></td></tr><tr><td style="font-weight:bold;vertical-align:top;">domain</td><td style="vertical-align:top;">:</td><td><div></div></td></tr><tr><td style="font-weight:bold;vertical-align:top;">expires</td><td style="vertical-align:top;">:</td><td><div></div></td></tr><tr><td style="font-weight:bold;vertical-align:top;">httponly</td><td style="vertical-align:top;">:</td><td><div></div></td></tr><tr><td style="font-weight:bold;vertical-align:top;">max-age</td><td style="vertical-align:top;">:</td><td><div></div></td></tr><tr><td style="font-weight:bold;vertical-align:top;">path</td><td style="vertical-align:top;">:</td><td><div></div></td></tr><tr><td style="font-weight:bold;vertical-align:top;">secure</td><td style="vertical-align:top;">:</td><td><div></div></td></tr><tr><td style="font-weight:bold;vertical-align:top;">version</td><td style="vertical-align:top;">:</td><td><div></div></td></tr></table></div></td></tr><tr><td style="font-weight:bold;vertical-align:top;">session_id_welcome</td><td style="vertical-align:top;">:</td><td><div>127.0.0.1-398d8fb1-a444-451f-913a-dafd02ce4110<table><tr><td style="font-weight:bold;vertical-align:top;">comment</td><td style="vertical-align:top;">:</td><td><div></div></td></tr><tr><td style="font-weight:bold;vertical-align:top;">domain</td><td style="vertical-align:top;">:</td><td><div></div></td></tr><tr><td style="font-weight:bold;vertical-align:top;">expires</td><td style="vertical-align:top;">:</td><td><div></div></td></tr><tr><td style="font-weight:bold;vertical-align:top;">httponly</td><td style="vertical-align:top;">:</td><td><div></div></td></tr><tr><td style="font-weight:bold;vertical-align:top;">max-age</td><td style="vertical-align:top;">:</td><td><div></div></td></tr><tr><td style="font-weight:bold;vertical-align:top;">path</td><td style="vertical-align:top;">:</td><td><div></div></td></tr><tr><td style="font-weight:bold;vertical-align:top;">secure</td><td style="vertical-align:top;">:</td><td><div></div></td></tr><tr><td style="font-weight:bold;vertical-align:top;">version</td><td style="vertical-align:top;">:</td><td><div></div></td></tr></table></div></td></tr></table></div></td></tr><tr><td style="font-weight:bold;vertical-align:top;">env</td><td style="vertical-align:top;">:</td><td><div><table><tr><td style="font-weight:bold;vertical-align:top;">HTTP_ACCEPT</td><td style="vertical-align:top;">:</td><td><div>text/html,application/xhtml+xml,application/xml;q=0.9,*/*;q=0.8</div></td></tr><tr><td style="font-weight:bold;vertical-align:top;">HTTP_ACCEPT_ENCODING</td><td style="vertical-align:top;">:</td><td><div>gzip, deflate</div></td></tr><tr><td style="font-weight:bold;vertical-align:top;">HTTP_ACCEPT_LANGUAGE</td><td style="vertical-align:top;">:</td><td><div>es-ES,es;q=0.8,en-US;q=0.5,en;q=0.3</div></td></tr><tr><td style="font-weight:bold;vertical-align:top;">HTTP_CONNECTION</td><td style="vertical-align:top;">:</td><td><div>keep-alive</div></td></tr><tr><td style="font-weight:bold;vertical-align:top;">HTTP_COOKIE</td><td style="vertical-align:top;">:</td><td><div>session_id_welcome=127.0.0.1-398d8fb1-a444-451f-913a-dafd02ce4110; session_id_admin=127.0.0.1-fe44eb8d-780b-446d-9a8a-c901a9f2d128</div></td></tr><tr><td style="font-weight:bold;vertical-align:top;">HTTP_HOST</td><td style="vertical-align:top;">:</td><td><div>127.0.0.1:8000</div></td></tr><tr><td style="font-weight:bold;vertical-align:top;">HTTP_REFERER</td><td style="vertical-align:top;">:</td><td><div>http://127.0.0.1:8000/admin/default/site</div></td></tr><tr><td style="font-weight:bold;vertical-align:top;">HTTP_USER_AGENT</td><td style="vertical-align:top;">:</td><td><div>Mozilla/5.0 (X11; Ubuntu; Linux x86_64; rv:32.0) Gecko/20100101 Firefox/32.0</div></td></tr><tr><td style="font-weight:bold;vertical-align:top;">PATH_INFO</td><td style="vertical-align:top;">:</td><td><div>/mapsnews/default/index</div></td></tr><tr><td style="font-weight:bold;vertical-align:top;">QUERY_STRING</td><td style="vertical-align:top;">:</td><td><div></div></td></tr><tr><td style="font-weight:bold;vertical-align:top;">REMOTE_ADDR</td><td style="vertical-align:top;">:</td><td><div>127.0.0.1</div></td></tr><tr><td style="font-weight:bold;vertical-align:top;">REMOTE_PORT</td><td style="vertical-align:top;">:</td><td><div>41863</div></td></tr><tr><td style="font-weight:bold;vertical-align:top;">REQUEST_METHOD</td><td style="vertical-align:top;">:</td><td><div>GET</div></td></tr><tr><td style="font-weight:bold;vertical-align:top;">SCRIPT_NAME</td><td style="vertical-align:top;">:</td><td><div></div></td></tr><tr><td style="font-weight:bold;vertical-align:top;">SERVER_NAME</td><td style="vertical-align:top;">:</td><td><div>desarrollo-Factor</div></td></tr><tr><td style="font-weight:bold;vertical-align:top;">SERVER_PORT</td><td style="vertical-align:top;">:</td><td><div>8000</div></td></tr><tr><td style="font-weight:bold;vertical-align:top;">SERVER_PROTOCOL</td><td style="vertical-align:top;">:</td><td><div>HTTP/1.1</div></td></tr><tr><td style="font-weight:bold;vertical-align:top;">SERVER_SOFTWARE</td><td style="vertical-align:top;">:</td><td><div>Rocket 1.2.6</div></td></tr><tr><td style="font-weight:bold;vertical-align:top;">app_folders</td><td style="vertical-align:top;">:</td><td><div>set([&#x27;/home/desarrollo/myapp/sismun/web2py/applications/mapsnews/&#x27;, &#x27;/home/desarrollo/myapp/sismun/web2py/applications/welcome/&#x27;, &#x27;/home/desarrollo/myapp/sismun/web2py/applications/admin/&#x27;])</div></td></tr><tr><td style="font-weight:bold;vertical-align:top;">applications_parent</td><td style="vertical-align:top;">:</td><td><div>/home/desarrollo/myapp/sismun/web2py</div></td></tr><tr><td style="font-weight:bold;vertical-align:top;">cmd_args</td><td style="vertical-align:top;">:</td><td><div><table></table></div></td></tr><tr><td style="font-weight:bold;vertical-align:top;">cmd_options</td><td style="vertical-align:top;">:</td><td><div>&lt;Values at 0x7f954ef3f878: {&#x27;verbose&#x27;: False, &#x27;ip&#x27;: &#x27;127.0.0.1&#x27;, &#x27;debuglevel&#x27;: 30, &#x27;with_scheduler&#x27;: False, &#x27;ips&#x27;: [&#x27;127.0.1.1&#x27;], &#x27;shutdown_timeout&#x27;: 5, &#x27;taskbar&#x27;: False, &#x27;with_coverage&#x27;: False, &#x27;port&#x27;: 8000, &#x27;maxthreads&#x27;: None, &#x27;softcron&#x27;: False, &#x27;server_name&#x27;: &#x27;desarrollo-Factor&#x27;, &#x27;bpython&#x27;: False, &#x27;nogui&#x27;: True, &#x27;pid_filename&#x27;: &#x27;httpserver.pid&#x27;, &#x27;extcron&#x27;: False, &#x27;runcron&#x27;: False, &#x27;run_system_tests&#x27;: False, &#x27;test&#x27;: None, &#x27;folder&#x27;: &#x27;/home/desarrollo/myapp/sismun/web2py&#x27;, &#x27;config&#x27;: &#x27;&#x27;, &#x27;minthreads&#x27;: None, &#x27;shell&#x27;: None, &#x27;run&#x27;: &#x27;&#x27;, &#x27;log_filename&#x27;: &#x27;httpserver.log&#x27;, &#x27;profiler_dir&#x27;: None, &#x27;args&#x27;: [&#x27;&#x27;], &#x27;socket_timeout&#x27;: 5, &#x27;ssl_ca_certificate&#x27;: None, &#x27;scheduler&#x27;: None, &#x27;interfaces&#x27;: None, &#x27;ssl_private_key&#x27;: &#x27;&#x27;, &#x27;scheduler_groups&#x27;: None, &#x27;password&#x27;: &#x27;123&#x27;, &#x27;request_queue_size&#x27;: 5, &#x27;ssl_certificate&#x27;: &#x27;&#x27;, &#x27;cronjob&#x27;: False, &#x27;numthreads&#x27;: None, &#x27;quiet&#x27;: False, &#x27;import_models&#x27;: False, &#x27;timeout&#x27;: 10, &#x27;plain&#x27;: False, &#x27;nobanner&#x27;: False}&gt;</div></td></tr><tr><td style="font-weight:bold;vertical-align:top;">db_sessions</td><td style="vertical-align:top;">:</td><td><div>set([])</div></td></tr><tr><td style="font-weight:bold;vertical-align:top;">debugging</td><td style="vertical-align:top;">:</td><td><div>False</div></td></tr><tr><td style="font-weight:bold;vertical-align:top;">gluon_parent</td><td style="vertical-align:top;">:</td><td><div>/home/desarrollo/myapp/sismun/web2py</div></td></tr><tr><td style="font-weight:bold;vertical-align:top;">http_accept</td><td style="vertical-align:top;">:</td><td><div>text/html,application/xhtml+xml,application/xml;q=0.9,*/*;q=0.8</div></td></tr><tr><td style="font-weight:bold;vertical-align:top;">http_accept_encoding</td><td style="vertical-align:top;">:</td><td><div>gzip, deflate</div></td></tr><tr><td style="font-weight:bold;vertical-align:top;">http_accept_language</td><td style="vertical-align:top;">:</td><td><div>es-ES,es;q=0.8,en-US;q=0.5,en;q=0.3</div></td></tr><tr><td style="font-weight:bold;vertical-align:top;">http_connection</td><td style="vertical-align:top;">:</td><td><div>keep-alive</div></td></tr><tr><td style="font-weight:bold;vertical-align:top;">http_cookie</td><td style="vertical-align:top;">:</td><td><div>session_id_welcome=127.0.0.1-398d8fb1-a444-451f-913a-dafd02ce4110; session_id_admin=127.0.0.1-fe44eb8d-780b-446d-9a8a-c901a9f2d128</div></td></tr><tr><td style="font-weight:bold;vertical-align:top;">http_host</td><td style="vertical-align:top;">:</td><td><div>127.0.0.1:8000</div></td></tr><tr><td style="font-weight:bold;vertical-align:top;">http_referer</td><td style="vertical-align:top;">:</td><td><div>http://127.0.0.1:8000/admin/default/site</div></td></tr><tr><td style="font-weight:bold;vertical-align:top;">http_user_agent</td><td style="vertical-align:top;">:</td><td><div>Mozilla/5.0 (X11; Ubuntu; Linux x86_64; rv:32.0) Gecko/20100101 Firefox/32.0</div></td></tr><tr><td style="font-weight:bold;vertical-align:top;">is_jython</td><td style="vertical-align:top;">:</td><td><div>False</div></td></tr><tr><td style="font-weight:bold;vertical-align:top;">is_pypy</td><td style="vertical-align:top;">:</td><td><div>False</div></td></tr><tr><td style="font-weight:bold;vertical-align:top;">is_source</td><td style="vertical-align:top;">:</td><td><div>True</div></td></tr><tr><td style="font-weight:bold;vertical-align:top;">local_hosts</td><td style="vertical-align:top;">:</td><td><div><table><tr><td><div>::1</div></td></tr><tr><td><div>127.0.1.1</div></td></tr><tr><td><div>desarrollo-Factor</div></td></tr><tr><td><div>::ffff:127.0.0.1</div></td></tr><tr><td><div>127.0.0.1</div></td></tr></table></div></td></tr><tr><td style="font-weight:bold;vertical-align:top;">path_info</td><td style="vertical-align:top;">:</td><td><div>/mapsnews/default/index</div></td></tr><tr><td style="font-weight:bold;vertical-align:top;">query_string</td><td style="vertical-align:top;">:</td><td><div></div></td></tr><tr><td style="font-weight:bold;vertical-align:top;">remote_addr</td><td style="vertical-align:top;">:</td><td><div>127.0.0.1</div></td></tr><tr><td style="font-weight:bold;vertical-align:top;">remote_port</td><td style="vertical-align:top;">:</td><td><div>41863</div></td></tr><tr><td style="font-weight:bold;vertical-align:top;">request_method</td><td style="vertical-align:top;">:</td><td><div>GET</div></td></tr><tr><td style="font-weight:bold;vertical-align:top;">request_uri</td><td style="vertical-align:top;">:</td><td><div>/mapsnews/default/index</div></td></tr><tr><td style="font-weight:bold;vertical-align:top;">script_name</td><td style="vertical-align:top;">:</td><td><div></div></td></tr><tr><td style="font-weight:bold;vertical-align:top;">server_name</td><td style="vertical-align:top;">:</td><td><div>desarrollo-Factor</div></td></tr><tr><td style="font-weight:bold;vertical-align:top;">server_port</td><td style="vertical-align:top;">:</td><td><div>8000</div></td></tr><tr><td style="font-weight:bold;vertical-align:top;">server_protocol</td><td style="vertical-align:top;">:</td><td><div>HTTP/1.1</div></td></tr><tr><td style="font-weight:bold;vertical-align:top;">server_software</td><td style="vertical-align:top;">:</td><td><div>Rocket 1.2.6</div></td></tr><tr><td style="font-weight:bold;vertical-align:top;">web2py_path</td><td style="vertical-align:top;">:</td><td><div>/home/desarrollo/myapp/sismun/web2py</div></td></tr><tr><td style="font-weight:bold;vertical-align:top;">web2py_version</td><td style="vertical-align:top;">:</td><td><div>2.9.5-stable+timestamp.2014.03.16.02.35.39</div></td></tr><tr><td style="font-weight:bold;vertical-align:top;">wsgi.errors</td><td style="vertical-align:top;">:</td><td><div>&lt;open file &#x27;&lt;stderr&gt;&#x27;, mode &#x27;w&#x27; at 0x7f95537b11e0&gt;</div></td></tr><tr><td style="font-weight:bold;vertical-align:top;">wsgi.file_wrapper</td><td style="vertical-align:top;">:</td><td><div>&lt;class wsgiref.util.FileWrapper at 0x7f954efb3a10&gt;</div></td></tr><tr><td style="font-weight:bold;vertical-align:top;">wsgi.input</td><td style="vertical-align:top;">:</td><td><div>&lt;socket._fileobject object at 0x7f953473f3d0&gt;</div></td></tr><tr><td style="font-weight:bold;vertical-align:top;">wsgi.multiprocess</td><td style="vertical-align:top;">:</td><td><div>False</div></td></tr><tr><td style="font-weight:bold;vertical-align:top;">wsgi.multithread</td><td style="vertical-align:top;">:</td><td><div>True</div></td></tr><tr><td style="font-weight:bold;vertical-align:top;">wsgi.run_once</td><td style="vertical-align:top;">:</td><td><div>False</div></td></tr><tr><td style="font-weight:bold;vertical-align:top;">wsgi.url_scheme</td><td style="vertical-align:top;">:</td><td><div>http</div></td></tr><tr><td style="font-weight:bold;vertical-align:top;">wsgi.version</td><td style="vertical-align:top;">:</td><td><div><table><tr><td><div>1</div></td></tr><tr><td><div>0</div></td></tr></table></div></td></tr><tr><td style="font-weight:bold;vertical-align:top;">wsgi_errors</td><td style="vertical-align:top;">:</td><td><div>&lt;open file &#x27;&lt;stderr&gt;&#x27;, mode &#x27;w&#x27; at 0x7f95537b11e0&gt;</div></td></tr><tr><td style="font-weight:bold;vertical-align:top;">wsgi_file_wrapper</td><td style="vertical-align:top;">:</td><td><div>&lt;class wsgiref.util.FileWrapper at 0x7f954efb3a10&gt;</div></td></tr><tr><td style="font-weight:bold;vertical-align:top;">wsgi_input</td><td style="vertical-align:top;">:</td><td><div>&lt;socket._fileobject object at 0x7f953473f3d0&gt;</div></td></tr><tr><td style="font-weight:bold;vertical-align:top;">wsgi_multiprocess</td><td style="vertical-align:top;">:</td><td><div>False</div></td></tr><tr><td style="font-weight:bold;vertical-align:top;">wsgi_multithread</td><td style="vertical-align:top;">:</td><td><div>True</div></td></tr><tr><td style="font-weight:bold;vertical-align:top;">wsgi_run_once</td><td style="vertical-align:top;">:</td><td><div>False</div></td></tr><tr><td style="font-weight:bold;vertical-align:top;">wsgi_url_scheme</td><td style="vertical-align:top;">:</td><td><div>http</div></td></tr><tr><td style="font-weight:bold;vertical-align:top;">wsgi_version</td><td style="vertical-align:top;">:</td><td><div><table><tr><td><div>1</div></td></tr><tr><td><div>0</div></td></tr></table></div></td></tr></table></div></td></tr><tr><td style="font-weight:bold;vertical-align:top;">extension</td><td style="vertical-align:top;">:</td><td><div>html</div></td></tr><tr><td style="font-weight:bold;vertical-align:top;">folder</td><td style="vertical-align:top;">:</td><td><div>/home/desarrollo/myapp/sismun/web2py/applications/mapsnews/</div></td></tr><tr><td style="font-weight:bold;vertical-align:top;">function</td><td style="vertical-align:top;">:</td><td><div>index</div></td></tr><tr><td style="font-weight:bold;vertical-align:top;">global_settings</td><td style="vertical-align:top;">:</td><td><div><table><tr><td style="font-weight:bold;vertical-align:top;">app_folders</td><td style="vertical-align:top;">:</td><td><div>set([&#x27;/home/desarrollo/myapp/sismun/web2py/applications/mapsnews/&#x27;, &#x27;/home/desarrollo/myapp/sismun/web2py/applications/welcome/&#x27;, &#x27;/home/desarrollo/myapp/sismun/web2py/applications/admin/&#x27;])</div></td></tr><tr><td style="font-weight:bold;vertical-align:top;">applications_parent</td><td style="vertical-align:top;">:</td><td><div>/home/desarrollo/myapp/sismun/web2py</div></td></tr><tr><td style="font-weight:bold;vertical-align:top;">cmd_args</td><td style="vertical-align:top;">:</td><td><div><table></table></div></td></tr><tr><td style="font-weight:bold;vertical-align:top;">cmd_options</td><td style="vertical-align:top;">:</td><td><div>&lt;Values at 0x7f954ef3f878: {&#x27;verbose&#x27;: False, &#x27;ip&#x27;: &#x27;127.0.0.1&#x27;, &#x27;debuglevel&#x27;: 30, &#x27;with_scheduler&#x27;: False, &#x27;ips&#x27;: [&#x27;127.0.1.1&#x27;], &#x27;shutdown_timeout&#x27;: 5, &#x27;taskbar&#x27;: False, &#x27;with_coverage&#x27;: False, &#x27;port&#x27;: 8000, &#x27;maxthreads&#x27;: None, &#x27;softcron&#x27;: False, &#x27;server_name&#x27;: &#x27;desarrollo-Factor&#x27;, &#x27;bpython&#x27;: False, &#x27;nogui&#x27;: True, &#x27;pid_filename&#x27;: &#x27;httpserver.pid&#x27;, &#x27;extcron&#x27;: False, &#x27;runcron&#x27;: False, &#x27;run_system_tests&#x27;: False, &#x27;test&#x27;: None, &#x27;folder&#x27;: &#x27;/home/desarrollo/myapp/sismun/web2py&#x27;, &#x27;config&#x27;: &#x27;&#x27;, &#x27;minthreads&#x27;: None, &#x27;shell&#x27;: None, &#x27;run&#x27;: &#x27;&#x27;, &#x27;log_filename&#x27;: &#x27;httpserver.log&#x27;, &#x27;profiler_dir&#x27;: None, &#x27;args&#x27;: [&#x27;&#x27;], &#x27;socket_timeout&#x27;: 5, &#x27;ssl_ca_certificate&#x27;: None, &#x27;scheduler&#x27;: None, &#x27;interfaces&#x27;: None, &#x27;ssl_private_key&#x27;: &#x27;&#x27;, &#x27;scheduler_groups&#x27;: None, &#x27;password&#x27;: &#x27;123&#x27;, &#x27;request_queue_size&#x27;: 5, &#x27;ssl_certificate&#x27;: &#x27;&#x27;, &#x27;cronjob&#x27;: False, &#x27;numthreads&#x27;: None, &#x27;quiet&#x27;: False, &#x27;import_models&#x27;: False, &#x27;timeout&#x27;: 10, &#x27;plain&#x27;: False, &#x27;nobanner&#x27;: False}&gt;</div></td></tr><tr><td style="font-weight:bold;vertical-align:top;">db_sessions</td><td style="vertical-align:top;">:</td><td><div>set([])</div></td></tr><tr><td style="font-weight:bold;vertical-align:top;">debugging</td><td style="vertical-align:top;">:</td><td><div>False</div></td></tr><tr><td style="font-weight:bold;vertical-align:top;">gluon_parent</td><td style="vertical-align:top;">:</td><td><div>/home/desarrollo/myapp/sismun/web2py</div></td></tr><tr><td style="font-weight:bold;vertical-align:top;">is_jython</td><td style="vertical-align:top;">:</td><td><div>False</div></td></tr><tr><td style="font-weight:bold;vertical-align:top;">is_pypy</td><td style="vertical-align:top;">:</td><td><div>False</div></td></tr><tr><td style="font-weight:bold;vertical-align:top;">is_source</td><td style="vertical-align:top;">:</td><td><div>True</div></td></tr><tr><td style="font-weight:bold;vertical-align:top;">local_hosts</td><td style="vertical-align:top;">:</td><td><div><table><tr><td><div>::1</div></td></tr><tr><td><div>127.0.1.1</div></td></tr><tr><td><div>desarrollo-Factor</div></td></tr><tr><td><div>::ffff:127.0.0.1</div></td></tr><tr><td><div>127.0.0.1</div></td></tr></table></div></td></tr><tr><td style="font-weight:bold;vertical-align:top;">web2py_version</td><td style="vertical-align:top;">:</td><td><div>2.9.5-stable+timestamp.2014.03.16.02.35.39</div></td></tr></table></div></td></tr><tr><td style="font-weight:bold;vertical-align:top;">is_https</td><td style="vertical-align:top;">:</td><td><div>False</div></td></tr><tr><td style="font-weight:bold;vertical-align:top;">is_local</td><td style="vertical-align:top;">:</td><td><div>True</div></td></tr><tr><td style="font-weight:bold;vertical-align:top;">is_restful</td><td style="vertical-align:top;">:</td><td><div>False</div></td></tr><tr><td style="font-weight:bold;vertical-align:top;">now</td><td style="vertical-align:top;">:</td><td><div>datetime.datetime(2014, 9, 19, 13, 26, 0, 813504)</div></td></tr><tr><td style="font-weight:bold;vertical-align:top;">raw_args</td><td style="vertical-align:top;">:</td><td><div></div></td></tr><tr><td style="font-weight:bold;vertical-align:top;">raw_extension</td><td style="vertical-align:top;">:</td><td><div>None</div></td></tr><tr><td style="font-weight:bold;vertical-align:top;">url</td><td style="vertical-align:top;">:</td><td><div>/mapsnews/default/index</div></td></tr><tr><td style="font-weight:bold;vertical-align:top;">utcnow</td><td style="vertical-align:top;">:</td><td><div>datetime.datetime(2014, 9, 19, 18, 26, 0, 813521)</div></td></tr><tr><td style="font-weight:bold;vertical-align:top;">uuid</td><td style="vertical-align:top;">:</td><td><div>mapsnews/127.0.0.1.2014-09-19.13-26-00.9119803a-8d78-45db-a298-f9acbcd50144</div></td></tr><tr><td style="font-weight:bold;vertical-align:top;">wsgi</td><td style="vertical-align:top;">:</td><td><div>&lt;gluon.main.LazyWSGI object at 0x7f954c06efd0&gt;</div></td></tr></table></div>'
tRp62
sS'frames'
p63
(lp64
(dp65
S'file'
p66
S'/home/desarrollo/myapp/sismun/web2py/gluon/restricted.py'
p67
sS'dump'
p68
(dp69
S'builtinisinstance'
p70
S'<built-in function isinstance>'
p71
sS'global types'
p72
S"<module 'types' from '/usr/lib/python2.7/types.pyc'>"
p73
sS'code'
p74
S'\'# -*- coding: utf-8 -*-\\n\\n# -*- coding: utf-8 -*-...281, 11.343062 44.494932, 10.394590 43.722998)")\\n\''
p75
sS'types.CodeType'
p76
S"<type 'code'>"
p77
ssS'lnum'
p78
I220
sS'lines'
p79
(dp80
I224
S'        exec ccode in environment'
p81
sI215
S'    if environment is None:'
p82
sI216
S'        environment = {}'
p83
sI217
S"    environment['__file__'] = layer"
p84
sI218
S"    environment['__name__'] = '__restricted__'"
p85
sI219
S'    try:'
p86
sI220
S'        if isinstance(code, types.CodeType):'
p87
sI221
S'            ccode = code'
p88
sI222
S'        else:'
p89
sI223
S'            ccode = compile2(code, layer)'
p90
ssS'call'
p91
S'(code=\'# -*- coding: utf-8 -*-\\n\\n# -*- coding: utf-8 -*-...281, 11.343062 44.494932, 10.394590 43.722998)")\\n\', environment={\'A\': <class \'gluon.html.A\'>, \'ANY_OF\': <class \'gluon.validators.ANY_OF\'>, \'B\': <class \'gluon.html.B\'>, \'BEAUTIFY\': <class \'gluon.html.BEAUTIFY\'>, \'BODY\': <class \'gluon.html.BODY\'>, \'BR\': <class \'gluon.html.BR\'>, \'BUTTON\': <class \'gluon.html.BUTTON\'>, \'CAT\': <class \'gluon.html.CAT\'>, \'CENTER\': <class \'gluon.html.CENTER\'>, \'CLEANUP\': <class \'gluon.validators.CLEANUP\'>, ...}, layer=\'/home/desarrollo/myapp/sismun/web2py/applications/mapsnews/models/db.py\')'
p92
sS'func'
p93
S'restricted'
p94
sa(dp95
g66
S'/home/desarrollo/myapp/sismun/web2py/applications/mapsnews/models/db.py'
p96
sg68
(dp97
S'Field'
p98
S"<class 'gluon.dal.Field'>"
p99
ssg78
I7
sg79
(dp100
I2
S''
sI3
S'# -*- coding: utf-8 -*-'
p101
sI4
S"db = DAL('postgres://postgres:oca01tex@localhost:5432/testw2p', lazy_tables=False,)"
p102
sI5
S"db.define_table('geostuff',"
p103
sI6
S"    Field('name', 'string'),"
p104
sI7
S"    Field('geometry1', 'geometry()'),"
p105
sI8
S'    )'
p106
sI9
S'n_rows = db(db.geostuff).count()'
p107
sI10
S'if not n_rows:'
p108
sI11
S'    db.geostuff.insert(name="My first geo point (London!)", geometry1="POINT(-0.091109 51.512622)")'
p109
ssg91
S'()'
p110
sg93
S'<module>'
p111
sa(dp112
g66
S'/home/desarrollo/myapp/sismun/web2py/gluon/dal.py'
p113
sg68
(dp114
S'i'
S'undefined'
p115
ssg78
I8223
sg79
(dp116
I8224
S'            while i < len(patterns):'
p117
sI8225
S'                pattern = patterns[i]'
p118
sI8226
S'                if not isinstance(pattern, str):'
p119
sI8227
S'                    pattern = pattern[0]'
p120
sI8218
S'            for table in db.tables:'
p121
sI8219
S"                if not table.startswith('auth_'):"
p122
sI8220
S"                    patterns.append('/%s[%s]' % (table, table))"
p123
sI8221
S"                    patterns += auto_table(table, base='', depth=1)"
p124
sI8222
S'        else:'
p125
sI8223
S'            i = 0'
p126
ssg91
S'(self=<DAL uri="postgres:******@localhost:5432/testw2p">, tablename=\'geostuff\', *fields=(<gluon.dal.Field object>, <gluon.dal.Field object>), **args={})'
p127
sg93
S'define_table'
p128
sa(dp129
g66
S'/home/desarrollo/myapp/sismun/web2py/gluon/dal.py'
p130
sg68
(dp131
S'table'
p132
S'<Table geostuff (id,name,geometry1)>'
p133
sS'otable'
p134
g115
ssg78
I8260
sg79
(dp135
I8256
S'                if re1.match(tag):'
p136
sI8257
S"                    # print 're1:'+tag"
p137
sI8258
S"                    tokens = tag[1:-1].split('.')"
p138
sI8259
S'                    table, field = tokens[0], tokens[1]'
p139
sI8260
S'                    if not otable or table == otable:'
p140
sI8261
S"                        if len(tokens) == 2 or tokens[2] == 'eq':"
p141
sI8262
S'                            query = db[table][field] == args[i]'
p142
sI8263
S"                        elif tokens[2] == 'ne':"
p143
sI8264
S'                            query = db[table][field] != args[i]'
p144
sI8255
S'            for tag in tags:'
p145
ssg91
S'(self=<DAL uri="postgres:******@localhost:5432/testw2p">, tablename=\'geostuff\', *fields=(<gluon.dal.Field object>, <gluon.dal.Field object>), **args={})'
p146
sg93
S'lazy_define_table'
p147
sa(dp148
g66
S'/home/desarrollo/myapp/sismun/web2py/gluon/dal.py'
p149
sg68
(dp150
S').isoformat'
p151
g115
sS'datetime.datetime.today'
p152
S'<built-in method today of type object>'
p153
sS'global datetime'
p154
S"<module 'datetime' from '/usr/lib/python2.7/lib-dynload/datetime.x86_64-linux-gnu.so'>"
p155
sS'datetime.datetime'
p156
S"<type 'datetime.datetime'>"
p157
sS'table'
p158
S'<Table geostuff (id,name,geometry1)>'
p159
sS'query'
p160
S"'CREATE TABLE geostuff(\\n    id SERIAL PRIMARY KEY,\\n    name VARCHAR(512)\\n);'"
p161
ssg78
I1104
sg79
(dp162
I1099
S"                dbpath, '%s_%s.table' % (table._db._uri_hash, tablename))"
p163
sI1100
S''
sI1101
S'        if not table._dbt or not self.file_exists(table._dbt):'
p164
sI1102
S'            if table._dbt:'
p165
sI1103
S"                self.log('timestamp: %s\\n%s\\n'"
p166
sI1104
S'                         % (datetime.datetime.today().isoformat(),'
p167
sI1105
S'                            query), table)'
p168
sI1106
S'            if not fake_migrate:'
p169
sI1107
S'                self.create_sequence_and_triggers(query, table)'
p170
sI1108
S'                table._db.commit()'
p171
ssg91
S'(self=<gluon.dal.PostgreSQLAdapter object>, table=<Table geostuff (id,name,geometry1)>, migrate=True, fake_migrate=False, polymodel=None)'
p172
sg93
S'create_table'
p173
sa(dp174
g66
S'/home/desarrollo/myapp/sismun/web2py/gluon/dal.py'
p175
sg68
(dp176
S'self'
p177
S'<gluon.dal.PostgreSQLAdapter object>'
p178
sS'distributed_transaction_begin'
p179
g115
sS'key'
p180
g115
ssg78
I2817
sg79
(dp181
I2816
S"            return '(%s + %s)' % (self.expand(first), self.expand(second, t))"
p182
sI2817
S''
sI2818
S'    def distributed_transaction_begin(self, key):'
p183
sI2819
S'        return'
p184
sI2820
S''
sI2821
S'    def prepare(self, key):'
p185
sI2812
S'        t = first.type'
p186
sI2813
S"        if t in ('text', 'string', 'password', 'json', 'upload', 'blob'):"
p187
sI2814
S"            return '(%s || %s)' % (self.expand(first), self.expand(second, t))"
p188
sI2815
S'        else:'
p189
ssg91
S"(self=<gluon.dal.PostgreSQLAdapter object>, query='CREATE TABLE geostuff(\\n    id SERIAL PRIMARY KEY,\\n    name VARCHAR(512)\\n);', table=<Table geostuff (id,name,geometry1)>, **args={})"
p190
sg93
S'create_sequence_and_triggers'
p191
sa(dp192
g66
S'/home/desarrollo/myapp/sismun/web2py/gluon/dal.py'
p193
sg68
(dp194
S'represent'
p195
g115
sS'self'
p196
S'<gluon.dal.PostgreSQLAdapter object>'
p197
sS'obj'
p198
g115
sS'fieldtype'
p199
g115
ssg78
I1969
sg79
(dp200
I1964
S'        return ret'
p201
sI1965
S''
sI1966
S'    def execute(self, *a, **b):'
p202
sI1967
S'        return self.log_execute(*a, **b)'
p203
sI1968
S''
sI1969
S'    def represent(self, obj, fieldtype):'
p204
sI1970
S'        field_is_type = fieldtype.startswith'
p205
sI1971
S'        if isinstance(obj, CALLABLETYPES):'
p206
sI1972
S'            obj = obj()'
p207
sI1973
S'        if isinstance(fieldtype, SQLCustomType):'
p208
ssg91
S"(self=<gluon.dal.PostgreSQLAdapter object>, *a=('CREATE TABLE geostuff(\\n    id SERIAL PRIMARY KEY,\\n    name VARCHAR(512)\\n);',), **b={})"
p209
sg93
S'execute'
p210
sa(dp211
g66
S'/home/desarrollo/myapp/sismun/web2py/gluon/dal.py'
p212
sg68
(dp213
S'self'
p214
S'<gluon.dal.PostgreSQLAdapter object>'
p215
sS'self.db._timings'
p216
S"[('SET standard_conforming_strings=on;', 0.0061571598052978516)]"
p217
sS'self.db'
p218
S'<DAL uri="postgres:******@localhost:5432/testw2p">'
p219
sS'global TIMINGSSIZE'
p220
S'100'
p221
ssg78
I1963
sg79
(dp222
I1958
S"            LOGGER.debug('SQL: %s' % command)"
p223
sI1959
S'        self.db._lastsql = command'
p224
sI1960
S'        t0 = time.time()'
p225
sI1961
S'        ret = self.cursor.execute(command, *a[1:], **b)'
p226
sI1962
S'        self.db._timings.append((command, time.time()-t0))'
p227
sI1963
S'        del self.db._timings[:-TIMINGSSIZE]'
p228
sI1964
S'        return ret'
p229
sI1965
S''
sI1966
S'    def execute(self, *a, **b):'
p230
sI1967
S'        return self.log_execute(*a, **b)'
p231
ssg91
S"(self=<gluon.dal.PostgreSQLAdapter object>, *a=('CREATE TABLE geostuff(\\n    id SERIAL PRIMARY KEY,\\n    name VARCHAR(512)\\n);',), **b={})"
p232
sg93
S'log_execute'
p233
sa(dp234
g66
S'/home/desarrollo/myapp/sismun/web2py/gluon/contrib/pg8000/dbapi.py'
p235
sg68
(dp236
S'self'
p237
S'<gluon.contrib.pg8000.dbapi.CursorWrapper object>'
p238
sS'args'
p239
S"('CREATE TABLE geostuff(\\n    id SERIAL PRIMARY KEY,\\n    name VARCHAR(512)\\n);',)"
p240
sS'fn'
p241
S'<function execute>'
p242
sS'kwargs'
p243
g21
ssg78
I246
sg79
(dp244
I241
S''
sI242
S'def require_open_cursor(fn):'
p245
sI243
S'    def _fn(self, *args, **kwargs):'
p246
sI244
S'        if self.cursor == None:'
p247
sI245
S'            raise CursorClosedError()'
p248
sI246
S'        return fn(self, *args, **kwargs)'
p249
sI247
S'    return _fn'
p250
sI248
S''
sI249
S'##'
p251
sI250
S'# The class of object returned by the {@link #ConnectionWrapper.cursor cursor method}.'
p252
ssg91
S"(self=<gluon.contrib.pg8000.dbapi.CursorWrapper object>, *args=('CREATE TABLE geostuff(\\n    id SERIAL PRIMARY KEY,\\n    name VARCHAR(512)\\n);',), **kwargs={})"
p253
sg93
S'_fn'
p254
sa(dp255
g66
S'/home/desarrollo/myapp/sismun/web2py/gluon/contrib/pg8000/dbapi.py'
p256
sg68
(dp257
S'self._execute'
p258
S'<bound method CursorWrapper._execute of <gluon.contrib.pg8000.dbapi.CursorWrapper object>>'
p259
sS'self'
p260
S'<gluon.contrib.pg8000.dbapi.CursorWrapper object>'
p261
sS'args'
p262
S'()'
p263
sS'operation'
p264
S"'CREATE TABLE geostuff(\\n    id SERIAL PRIMARY KEY,\\n    name VARCHAR(512)\\n);'"
p265
ssg78
I317
sg79
(dp266
I320
S'        new_query, new_args = convert_paramstyle(paramstyle, operation, args)'
p267
sI321
S'        try:'
p268
sI312
S'    @require_open_cursor'
p269
sI313
S'    def execute(self, operation, args=()):'
p270
sI314
S'        if not self._connection.in_transaction:'
p271
sI315
S'            self._connection.begin()'
p272
sI316
S'        self._override_rowcount = None'
p273
sI317
S'        self._execute(operation, args)'
p274
sI318
S''
sI319
S'    def _execute(self, operation, args=()):'
p275
ssg91
S"(self=<gluon.contrib.pg8000.dbapi.CursorWrapper object>, operation='CREATE TABLE geostuff(\\n    id SERIAL PRIMARY KEY,\\n    name VARCHAR(512)\\n);', args=())"
p276
sg93
g210
sa(dp277
g66
S'/home/desarrollo/myapp/sismun/web2py/gluon/contrib/pg8000/dbapi.py'
p278
sg68
(dp279
S'new_args'
p280
S'()'
p281
sS'self.cursor'
p282
S'<gluon.contrib.pg8000.interface.Cursor object>'
p283
sS'self'
p284
S'<gluon.contrib.pg8000.dbapi.CursorWrapper object>'
p285
sS'new_query'
p286
S"'CREATE TABLE geostuff(\\n    id SERIAL PRIMARY KEY,\\n    name VARCHAR(512)\\n);'"
p287
sS'self.cursor.execute'
p288
S'<bound method Cursor.execute of <gluon.contrib.pg8000.interface.Cursor object>>'
p289
ssg78
I322
sg79
(dp290
I320
S'        new_query, new_args = convert_paramstyle(paramstyle, operation, args)'
p291
sI321
S'        try:'
p292
sI322
S'            self.cursor.execute(new_query, *new_args)'
p293
sI323
S'        except ConnectionClosedError:'
p294
sI324
S"            # can't rollback in this case"
p295
sI325
S'            raise'
p296
sI326
S'        except:'
p297
sI317
S'        self._execute(operation, args)'
p298
sI318
S''
sI319
S'    def _execute(self, operation, args=()):'
p299
ssg91
S"(self=<gluon.contrib.pg8000.dbapi.CursorWrapper object>, operation='CREATE TABLE geostuff(\\n    id SERIAL PRIMARY KEY,\\n    name VARCHAR(512)\\n);', args=())"
p300
sg93
S'_execute'
p301
sa(dp302
g66
S'/home/desarrollo/myapp/sismun/web2py/gluon/contrib/pg8000/interface.py'
p303
sg68
(dp304
S'self._stmt.execute'
p305
S'<bound method PreparedStatement.execute of <gluo...ntrib.pg8000.interface.PreparedStatement object>>'
p306
sS'kwargs'
p307
g21
sS'self'
p308
S'<gluon.contrib.pg8000.interface.Cursor object>'
p309
sS'args'
p310
S'()'
p311
sS'self._stmt'
p312
S'<gluon.contrib.pg8000.interface.PreparedStatement object>'
p313
ssg78
I399
sg79
(dp314
I394
S'                ## print "SimpleQuery:", query'
p315
sI395
S'                self._stmt = SimpleStatement(self.connection, query)'
p316
sI396
S'            else:'
p317
sI397
S'                # use PostgreSQL Extended Query Protocol'
p318
sI398
S'                self._stmt = PreparedStatement(self.connection, query, statement_name="", *[{"type": type(x), "value": x} for x in args])'
p319
sI399
S'            self._stmt.execute(*args, **kwargs)'
p320
sI400
S'        finally:'
p321
sI401
S'            self.connection._unnamed_prepared_statement_lock.release()'
p322
sI402
S''
sI403
S'    ##'
p323
ssg91
S"(self=<gluon.contrib.pg8000.interface.Cursor object>, query='CREATE TABLE geostuff(\\n    id SERIAL PRIMARY KEY,\\n    name VARCHAR(512)\\n);', *args=(), **kwargs={})"
p324
sg93
g210
sa(dp325
g66
S'/home/desarrollo/myapp/sismun/web2py/gluon/contrib/pg8000/interface.py'
p326
sg68
(dp327
S'kwargs.get'
p328
S'<built-in method get of dict object>'
p329
sS'args'
p330
S'()'
p331
sS'self.c'
p332
S'<gluon.contrib.pg8000.protocol.Connection object>'
p333
sS'self'
p334
S'<gluon.contrib.pg8000.interface.PreparedStatement object>'
p335
sS'cmd'
p336
g115
sS'self._row_desc'
p337
S'None'
p338
sS'self.c.bind'
p339
S'<bound method Connection._fn of <gluon.contrib.pg8000.protocol.Connection object>>'
p340
sS'self._statement_name'
p341
S"''"
p342
sS'self._parse_row_desc'
p343
S'(None, [])'
p344
sS'kwargs'
p345
g21
sS'self._portal_name'
p346
S"'pg8000_portal_9'"
p347
ssg78
I169
sg79
(dp348
I164
S'                self._ongoing_row_count = 0'
p349
sI165
S'            if self._portal_name != None:'
p350
sI166
S'                self.c.close_portal(self._portal_name)'
p351
sI167
S'            self._command_complete = False'
p352
sI168
S'            self._portal_name = "pg8000_portal_%s" % self._statement_number'
p353
sI169
S'            self._row_desc, cmd = self.c.bind(self._portal_name, self._statement_name, args, self._parse_row_desc, kwargs.get("stream"))'
p354
sI170
S'            if self._row_desc:'
p355
sI171
S'                # We execute our cursor right away to fill up our cache.  This'
p356
sI172
S'                # prevents the cursor from being destroyed, apparently, by a rogue'
p357
sI173
S'                # Sync between Bind and Execute.  Since it is quite likely that'
p358
ssg91
S'(self=<gluon.contrib.pg8000.interface.PreparedStatement object>, *args=(), **kwargs={})'
p359
sg93
g210
sa(dp360
g66
S'/home/desarrollo/myapp/sismun/web2py/gluon/contrib/pg8000/protocol.py'
p361
sg68
(dp362
S'self'
p363
S'<gluon.contrib.pg8000.protocol.Connection object>'
p364
sS'args'
p365
S"('pg8000_portal_9', '', (), (None, []), None)"
p366
sS'fn'
p367
S'<function bind>'
p368
sS'kwargs'
p369
g21
ssg78
I943
sg79
(dp370
I938
S''
sI939
S'def sync_on_error(fn):'
p371
sI940
S'    def _fn(self, *args, **kwargs):'
p372
sI941
S'        try:'
p373
sI942
S'            self._sock_lock.acquire()'
p374
sI943
S'            return fn(self, *args, **kwargs)'
p375
sI944
S'        except:'
p376
sI945
S'            self._sync()'
p377
sI946
S'            raise'
p378
sI947
S'        finally:'
p379
ssg91
S"(self=<gluon.contrib.pg8000.protocol.Connection object>, *args=('pg8000_portal_9', '', (), (None, []), None), **kwargs={})"
p380
sg93
g254
sa(dp381
g66
S'/home/desarrollo/myapp/sismun/web2py/gluon/contrib/pg8000/protocol.py'
p382
sg68
(dp383
S'reader.handle_messages'
p384
S'<bound method MessageReader.handle_messages of <gluon.contrib.pg8000.protocol.MessageReader object>>'
p385
sS'reader'
p386
S'<gluon.contrib.pg8000.protocol.MessageReader object>'
p387
ssg78
I1142
sg79
(dp388
I1137
S''
sI1138
S'        # Return the new row desc, since it will have the format types we'
p389
sI1139
S'        # asked the server for'
p390
sI1140
S'        reader.add_message(RowDescription, lambda msg: (msg, None))'
p391
sI1141
S''
sI1142
S'        return reader.handle_messages()'
p392
sI1143
S''
sI1144
S'    def _copy_in_response(self, copyin, fileobj, old_reader):'
p393
sI1145
S'        if fileobj == None:'
p394
sI1146
S'            raise CopyQueryWithoutStreamError()'
p395
ssg91
S"(self=<gluon.contrib.pg8000.protocol.Connection object>, portal='pg8000_portal_9', statement='', params=(), parse_data=(None, []), copy_stream=None)"
p396
sg93
S'bind'
p397
sa(dp398
g66
S'/home/desarrollo/myapp/sismun/web2py/gluon/contrib/pg8000/protocol.py'
p399
sg68
(dp400
S'msg'
p401
S'<gluon.contrib.pg8000.protocol.NoData object>'
p402
sS'handler'
p403
S'<bound method Connection._bind_nodata of <gluon.contrib.pg8000.protocol.Connection object>>'
p404
sS'retval'
p405
S'0'
sS'args'
p406
S"('pg8000_portal_9', <gluon.contrib.pg8000.protocol.MessageReader object>, None)"
p407
sS'kwargs'
p408
g21
ssg78
I911
sg79
(dp409
I906
S'            msg = self._conn._read_message()'
p410
sI907
S'            msg_handled = False'
p411
sI908
S'            for (msg_class, handler, args, kwargs) in self._msgs:'
p412
sI909
S'                if isinstance(msg, msg_class):'
p413
sI910
S'                    msg_handled = True'
p414
sI911
S'                    retval = handler(msg, *args, **kwargs)'
p415
sI912
S'                    if retval:'
p416
sI913
S'                        # The handler returned a true value, meaning that the'
p417
sI914
S'                        # message loop should be aborted.'
p418
sI915
S'                        if exc != None:'
p419
ssg91
S'(self=<gluon.contrib.pg8000.protocol.MessageReader object>)'
p420
sg93
S'handle_messages'
p421
sa(dp422
g66
S'/home/desarrollo/myapp/sismun/web2py/gluon/contrib/pg8000/protocol.py'
p423
sg68
(dp424
S'reader.handle_messages'
p425
S'<bound method MessageReader.handle_messages of <gluon.contrib.pg8000.protocol.MessageReader object>>'
p426
sS'reader'
p427
S'<gluon.contrib.pg8000.protocol.MessageReader object>'
p428
ssg78
I1181
sg79
(dp429
I1184
S''
sI1185
S'    @sync_on_error'
p430
sI1176
S'        reader.add_message(CopyOutResponse, self._copy_out_response, copy_stream, reader)'
p431
sI1177
S'        reader.add_message(CopyInResponse, self._copy_in_response, copy_stream, reader)'
p432
sI1178
S"        reader.add_message(CommandComplete, lambda msg, out: out.setdefault('msg', msg) and False, output)"
p433
sI1179
S'        reader.add_message(ReadyForQuery, lambda msg: 1)'
p434
sI1180
S'        reader.delay_raising_exception = True'
p435
sI1181
S'        reader.handle_messages()'
p436
sI1182
S''
sI1183
S"        old_reader.return_value((None, output['msg']))"
p437
ssg91
S"(self=<gluon.contrib.pg8000.protocol.Connection object>, msg=<gluon.contrib.pg8000.protocol.NoData object>, portal='pg8000_portal_9', old_reader=<gluon.contrib.pg8000.protocol.MessageReader object>, copy_stream=None)"
p438
sg93
S'_bind_nodata'
p439
sa(dp440
g66
S'/home/desarrollo/myapp/sismun/web2py/gluon/contrib/pg8000/protocol.py'
p441
sg68
(dp442
S'exc'
p443
S'ProgrammingError(\'ERROR\', \'42P07\', \'relation "geostuff" already exists\')'
p444
ssg78
I916
sg79
(dp445
I911
S'                    retval = handler(msg, *args, **kwargs)'
p446
sI912
S'                    if retval:'
p447
sI913
S'                        # The handler returned a true value, meaning that the'
p448
sI914
S'                        # message loop should be aborted.'
p449
sI915
S'                        if exc != None:'
p450
sI916
S'                            raise exc'
p451
sI917
S'                        return retval'
p452
sI918
S'                    elif hasattr(self, "_retval"):'
p453
sI919
S'                        # The handler told us to return -- used for non-true'
p454
sI920
S'                        # return values'
p455
ssg91
S'(self=<gluon.contrib.pg8000.protocol.MessageReader object>)'
p456
sg93
g421
sasS'pyver'
p457
S'Python 2.7.6: /usr/bin/python (prefix: /usr)'
p458
sS'session'
p459
g61
(S's\x1a\x00\x00\x00<div><table></table></div>'
tRp460
sS'etype'
p461
S"<class 'gluon.contrib.pg8000.errors.ProgrammingError'>"
p462
sS'date'
p463
S'Fri Sep 19 13:26:00 2014'
p464
sS'response'
p465
g61
(S's\x95\x15\x00\x00<div><table><tr><td style="font-weight:bold;vertical-align:top;">body</td><td style="vertical-align:top;">:</td><td><div>&lt;cStringIO.StringO object at 0x7f9534681688&gt;</div></td></tr><tr><td style="font-weight:bold;vertical-align:top;">cookies</td><td style="vertical-align:top;">:</td><td><div><table><tr><td style="font-weight:bold;vertical-align:top;">session_id_mapsnews</td><td style="vertical-align:top;">:</td><td><div>127.0.0.1-1ed7df38-45d8-4daa-8e2d-c3a7ecc4fc7a<table><tr><td style="font-weight:bold;vertical-align:top;">comment</td><td style="vertical-align:top;">:</td><td><div></div></td></tr><tr><td style="font-weight:bold;vertical-align:top;">domain</td><td style="vertical-align:top;">:</td><td><div></div></td></tr><tr><td style="font-weight:bold;vertical-align:top;">expires</td><td style="vertical-align:top;">:</td><td><div></div></td></tr><tr><td style="font-weight:bold;vertical-align:top;">httponly</td><td style="vertical-align:top;">:</td><td><div></div></td></tr><tr><td style="font-weight:bold;vertical-align:top;">max-age</td><td style="vertical-align:top;">:</td><td><div></div></td></tr><tr><td style="font-weight:bold;vertical-align:top;">path</td><td style="vertical-align:top;">:</td><td><div>/</div></td></tr><tr><td style="font-weight:bold;vertical-align:top;">secure</td><td style="vertical-align:top;">:</td><td><div></div></td></tr><tr><td style="font-weight:bold;vertical-align:top;">version</td><td style="vertical-align:top;">:</td><td><div></div></td></tr></table></div></td></tr></table></div></td></tr><tr><td style="font-weight:bold;vertical-align:top;">delimiters</td><td style="vertical-align:top;">:</td><td><div><table><tr><td><div>{{</div></td></tr><tr><td><div>}}</div></td></tr></table></div></td></tr><tr><td style="font-weight:bold;vertical-align:top;">files</td><td style="vertical-align:top;">:</td><td><div><table></table></div></td></tr><tr><td style="font-weight:bold;vertical-align:top;">flash</td><td style="vertical-align:top;">:</td><td><div></div></td></tr><tr><td style="font-weight:bold;vertical-align:top;">generic_patterns</td><td style="vertical-align:top;">:</td><td><div><table></table></div></td></tr><tr><td style="font-weight:bold;vertical-align:top;">headers</td><td style="vertical-align:top;">:</td><td><div><table><tr><td style="font-weight:bold;vertical-align:top;">X-Powered-By</td><td style="vertical-align:top;">:</td><td><div>web2py</div></td></tr></table></div></td></tr><tr><td style="font-weight:bold;vertical-align:top;">menu</td><td style="vertical-align:top;">:</td><td><div><table></table></div></td></tr><tr><td style="font-weight:bold;vertical-align:top;">meta</td><td style="vertical-align:top;">:</td><td><div><table></table></div></td></tr><tr><td style="font-weight:bold;vertical-align:top;">models_to_run</td><td style="vertical-align:top;">:</td><td><div><table><tr><td><div>^\\w+\\.py$</div></td></tr><tr><td><div>^default/\\w+\\.py$</div></td></tr><tr><td><div>^default/index/\\w+\\.py$</div></td></tr></table></div></td></tr><tr><td style="font-weight:bold;vertical-align:top;">postprocessing</td><td style="vertical-align:top;">:</td><td><div><table></table></div></td></tr><tr><td style="font-weight:bold;vertical-align:top;">session_client</td><td style="vertical-align:top;">:</td><td><div>127.0.0.1</div></td></tr><tr><td style="font-weight:bold;vertical-align:top;">session_cookie_compression_level</td><td style="vertical-align:top;">:</td><td><div>None</div></td></tr><tr><td style="font-weight:bold;vertical-align:top;">session_cookie_expires</td><td style="vertical-align:top;">:</td><td><div>None</div></td></tr><tr><td style="font-weight:bold;vertical-align:top;">session_cookie_key</td><td style="vertical-align:top;">:</td><td><div>None</div></td></tr><tr><td style="font-weight:bold;vertical-align:top;">session_data_name</td><td style="vertical-align:top;">:</td><td><div>session_data_mapsnews</div></td></tr><tr><td style="font-weight:bold;vertical-align:top;">session_file</td><td style="vertical-align:top;">:</td><td><div>None</div></td></tr><tr><td style="font-weight:bold;vertical-align:top;">session_filename</td><td style="vertical-align:top;">:</td><td><div>/home/desarrollo/myapp/sismun/web2py/applications/mapsnews/sessions/127.0.0.1-1ed7df38-45d8-4daa-8e2d-c3a7ecc4fc7a</div></td></tr><tr><td style="font-weight:bold;vertical-align:top;">session_hash</td><td style="vertical-align:top;">:</td><td><div>106f4c22ca06cc343e42b73a0d8492f6</div></td></tr><tr><td style="font-weight:bold;vertical-align:top;">session_id</td><td style="vertical-align:top;">:</td><td><div>127.0.0.1-1ed7df38-45d8-4daa-8e2d-c3a7ecc4fc7a</div></td></tr><tr><td style="font-weight:bold;vertical-align:top;">session_id_name</td><td style="vertical-align:top;">:</td><td><div>session_id_mapsnews</div></td></tr><tr><td style="font-weight:bold;vertical-align:top;">session_masterapp</td><td style="vertical-align:top;">:</td><td><div>mapsnews</div></td></tr><tr><td style="font-weight:bold;vertical-align:top;">session_new</td><td style="vertical-align:top;">:</td><td><div>True</div></td></tr><tr><td style="font-weight:bold;vertical-align:top;">session_storage_type</td><td style="vertical-align:top;">:</td><td><div>file</div></td></tr><tr><td style="font-weight:bold;vertical-align:top;">status</td><td style="vertical-align:top;">:</td><td><div>200</div></td></tr><tr><td style="font-weight:bold;vertical-align:top;">view</td><td style="vertical-align:top;">:</td><td><div>default/index.html</div></td></tr></table></div>'
tRp466
sS'locals'
p467
(dp468
S'exc'
p469
S'ProgrammingError(\'ERROR\', \'42P07\', \'relation "geostuff" already exists\')'
p470
sS'msg_class'
p471
S"<class 'gluon.contrib.pg8000.protocol.ReadyForQuery'>"
p472
sS'self'
p473
S'<gluon.contrib.pg8000.protocol.MessageReader object>'
p474
sg46
S'()'
p475
sS'handler'
p476
S'<function <lambda>>'
p477
sS'kwargs'
p478
g21
sS'msg'
p479
S'<ReadyForQuery Idle in Failed Transaction>'
p480
sS'msg_handled'
p481
S'True'
p482
sS'retval'
p483
S'1'
sssS'traceback'
p484
S'Traceback (most recent call last):\n  File "/home/desarrollo/myapp/sismun/web2py/gluon/restricted.py", line 220, in restricted\n    if isinstance(code, types.CodeType):\n  File "/home/desarrollo/myapp/sismun/web2py/applications/mapsnews/models/db.py", line 7, in <module>\n    Field(\'geometry1\', \'geometry()\'),\n  File "/home/desarrollo/myapp/sismun/web2py/gluon/dal.py", line 8223, in define_table\n    i = 0\n  File "/home/desarrollo/myapp/sismun/web2py/gluon/dal.py", line 8260, in lazy_define_table\n    if not otable or table == otable:\n  File "/home/desarrollo/myapp/sismun/web2py/gluon/dal.py", line 1104, in create_table\n    % (datetime.datetime.today().isoformat(),\n  File "/home/desarrollo/myapp/sismun/web2py/gluon/dal.py", line 2817, in create_sequence_and_triggers\n  File "/home/desarrollo/myapp/sismun/web2py/gluon/dal.py", line 1969, in execute\n    def represent(self, obj, fieldtype):\n  File "/home/desarrollo/myapp/sismun/web2py/gluon/dal.py", line 1963, in log_execute\n    del self.db._timings[:-TIMINGSSIZE]\n  File "/home/desarrollo/myapp/sismun/web2py/gluon/contrib/pg8000/dbapi.py", line 246, in _fn\n    return fn(self, *args, **kwargs)\n  File "/home/desarrollo/myapp/sismun/web2py/gluon/contrib/pg8000/dbapi.py", line 317, in execute\n    self._execute(operation, args)\n  File "/home/desarrollo/myapp/sismun/web2py/gluon/contrib/pg8000/dbapi.py", line 322, in _execute\n    self.cursor.execute(new_query, *new_args)\n  File "/home/desarrollo/myapp/sismun/web2py/gluon/contrib/pg8000/interface.py", line 399, in execute\n    self._stmt.execute(*args, **kwargs)\n  File "/home/desarrollo/myapp/sismun/web2py/gluon/contrib/pg8000/interface.py", line 169, in execute\n    self._row_desc, cmd = self.c.bind(self._portal_name, self._statement_name, args, self._parse_row_desc, kwargs.get("stream"))\n  File "/home/desarrollo/myapp/sismun/web2py/gluon/contrib/pg8000/protocol.py", line 943, in _fn\n    return fn(self, *args, **kwargs)\n  File "/home/desarrollo/myapp/sismun/web2py/gluon/contrib/pg8000/protocol.py", line 1142, in bind\n    return reader.handle_messages()\n  File "/home/desarrollo/myapp/sismun/web2py/gluon/contrib/pg8000/protocol.py", line 911, in handle_messages\n    retval = handler(msg, *args, **kwargs)\n  File "/home/desarrollo/myapp/sismun/web2py/gluon/contrib/pg8000/protocol.py", line 1181, in _bind_nodata\n    reader.handle_messages()\n  File "/home/desarrollo/myapp/sismun/web2py/gluon/contrib/pg8000/protocol.py", line 916, in handle_messages\n    raise exc\nProgrammingError: (\'ERROR\', \'42P07\', \'relation "geostuff" already exists\')\n'
p485
s.